target datalayout = "e-m:e-p270:32:32-p271:32:32-p272:64:64-i64:64-i128:128-f80:128-n8:16:32:64-S128"
target triple = "x86_64-unknown-linux-gnu"

%class.tactic.base = type <{ %"class.user_propagator::core", i32 }>
%"class.user_propagator::core" = type { ptr }
%class.ref = type { ptr }
%class.binary_tactical = type { %class.tactic.base, %class.ref, %class.ref }
%class.tactic = type <{ %"class.user_propagator::core", i32, [4 x i8] }>

; Function Attrs: mustprogress uwtable
define linkonce_odr hidden void @_Z7deallocI6tacticEvPT_(ptr noundef %ptr) #4 comdat {
entry:
  %ptr.addr = alloca ptr, align 8
  store ptr %ptr, ptr %ptr.addr, align 8
  %0 = load ptr, ptr %ptr.addr, align 8
  %cmp = icmp eq ptr %0, null
  br i1 %cmp, label %if.then, label %if.end

if.then:                                          ; preds = %entry
  br label %return

if.end:                                           ; preds = %entry
  %1 = load ptr, ptr %ptr.addr, align 8
  %vtable = load ptr, ptr %1, align 8
  %vfn = getelementptr inbounds ptr, ptr %vtable, i64 0
  %2 = load ptr, ptr %vfn, align 8
  call void %2(ptr noundef nonnull align 8 dereferenceable(12) %1) #3
  %3 = load ptr, ptr %ptr.addr, align 8
  call void @_ZN6memory10deallocateEPv(ptr noundef %3)
  br label %return

return:                                           ; preds = %if.end, %if.then
  ret void
}

; Function Attrs: mustprogress uwtable
define linkonce_odr hidden void @_ZN6tactic7dec_refEv(ptr noundef nonnull align 8 dereferenceable(12) %this) #4 comdat align 2 {
entry:
  %this.addr = alloca ptr, align 8
  store ptr %this, ptr %this.addr, align 8
  %this1 = load ptr, ptr %this.addr, align 8
  %m_ref_count = getelementptr inbounds %class.tactic, ptr %this1, i32 0, i32 1
  %0 = load i32, ptr %m_ref_count, align 8
  %dec = add i32 %0, -1
  store i32 %dec, ptr %m_ref_count, align 8
  %m_ref_count2 = getelementptr inbounds %class.tactic, ptr %this1, i32 0, i32 1
  %1 = load i32, ptr %m_ref_count2, align 8
  %cmp = icmp eq i32 %1, 0
  br i1 %cmp, label %if.then, label %if.end

if.then:                                          ; preds = %entry
  call void @_Z7deallocI6tacticEvPT_(ptr noundef %this1)
  br label %if.end

if.end:                                           ; preds = %if.then, %entry
  ret void
}

; Function Attrs: mustprogress nounwind uwtable
define linkonce_odr hidden void @_ZN6tactic7inc_refEv(ptr noundef nonnull align 8 dereferenceable(12) %this) #5 comdat align 2 {
entry:
  %this.addr = alloca ptr, align 8
  store ptr %this, ptr %this.addr, align 8
  %this1 = load ptr, ptr %this.addr, align 8
  %m_ref_count = getelementptr inbounds %class.tactic, ptr %this1, i32 0, i32 1
  %0 = load i32, ptr %m_ref_count, align 8
  %inc = add i32 %0, 1
  store i32 %inc, ptr %m_ref_count, align 8
  ret void
}

; Function Attrs: mustprogress nounwind uwtable
define linkonce_odr hidden void @_ZN15user_propagator4coreD2Ev(ptr noundef nonnull align 8 dereferenceable(8) %this) unnamed_addr #5 comdat align 2 {
entry:
  %this.addr = alloca ptr, align 8
  store ptr %this, ptr %this.addr, align 8
  ret void
}

; Function Attrs: noreturn nounwind uwtable
define linkonce_odr hidden void @__clang_call_terminate(ptr noundef %0) #8 comdat {
  %2 = call ptr @__cxa_begin_catch(ptr %0) #3
  call void @_ZSt9terminatev() #16
  unreachable
}

; Function Attrs: mustprogress uwtable
define linkonce_odr hidden void @_ZN3refI6tacticE7dec_refEv(ptr noundef nonnull align 8 dereferenceable(8) %this) #4 comdat align 2 {
entry:
  %this.addr = alloca ptr, align 8
  store ptr %this, ptr %this.addr, align 8
  %this1 = load ptr, ptr %this.addr, align 8
  %m_ptr = getelementptr inbounds %class.ref, ptr %this1, i32 0, i32 0
  %0 = load ptr, ptr %m_ptr, align 8
  %tobool = icmp ne ptr %0, null
  br i1 %tobool, label %if.then, label %if.end

if.then:                                          ; preds = %entry
  %m_ptr2 = getelementptr inbounds %class.ref, ptr %this1, i32 0, i32 0
  %1 = load ptr, ptr %m_ptr2, align 8
  call void @_ZN6tactic7dec_refEv(ptr noundef nonnull align 8 dereferenceable(12) %1)
  br label %if.end

if.end:                                           ; preds = %if.then, %entry
  ret void
}

; Function Attrs: mustprogress uwtable
define linkonce_odr hidden void @_ZN3refI6tacticE7inc_refEv(ptr noundef nonnull align 8 dereferenceable(8) %this) #4 comdat align 2 {
entry:
  %this.addr = alloca ptr, align 8
  store ptr %this, ptr %this.addr, align 8
  %this1 = load ptr, ptr %this.addr, align 8
  %m_ptr = getelementptr inbounds %class.ref, ptr %this1, i32 0, i32 0
  %0 = load ptr, ptr %m_ptr, align 8
  %tobool = icmp ne ptr %0, null
  br i1 %tobool, label %if.then, label %if.end

if.then:                                          ; preds = %entry
  %m_ptr2 = getelementptr inbounds %class.ref, ptr %this1, i32 0, i32 0
  %1 = load ptr, ptr %m_ptr2, align 8
  call void @_ZN6tactic7inc_refEv(ptr noundef nonnull align 8 dereferenceable(12) %1)
  br label %if.end

if.end:                                           ; preds = %if.then, %entry
  ret void
}

; Function Attrs: mustprogress nounwind uwtable
define linkonce_odr hidden void @_ZN15user_propagator4coreC2Ev(ptr noundef nonnull align 8 dereferenceable(8) %this) unnamed_addr #5 comdat align 2 {
entry:
  %this.addr = alloca ptr, align 8
  store ptr %this, ptr %this.addr, align 8
  %this1 = load ptr, ptr %this.addr, align 8
  store ptr getelementptr inbounds ({ [14 x ptr] }, ptr @_ZTVN15user_propagator4coreE, i32 0, i32 0, i32 2), ptr %this1, align 8
  ret void
}

; Function Attrs: mustprogress nounwind uwtable
define linkonce_odr hidden void @_ZN6tacticD2Ev(ptr noundef nonnull align 8 dereferenceable(12) %this) unnamed_addr #5 comdat align 2 {
entry:
  %this.addr = alloca ptr, align 8
  store ptr %this, ptr %this.addr, align 8
  %this1 = load ptr, ptr %this.addr, align 8
  call void @_ZN15user_propagator4coreD2Ev(ptr noundef nonnull align 8 dereferenceable(8) %this1) #3
  ret void
}

; Function Attrs: mustprogress nounwind uwtable
define linkonce_odr hidden void @_ZN3refI6tacticED2Ev(ptr noundef nonnull align 8 dereferenceable(8) %this) unnamed_addr #5 comdat align 2 personality ptr @__gxx_personality_v0 {
entry:
  %this.addr = alloca ptr, align 8
  store ptr %this, ptr %this.addr, align 8
  %this1 = load ptr, ptr %this.addr, align 8
  invoke void @_ZN3refI6tacticE7dec_refEv(ptr noundef nonnull align 8 dereferenceable(8) %this1)
          to label %invoke.cont unwind label %terminate.lpad

invoke.cont:                                      ; preds = %entry
  ret void

terminate.lpad:                                   ; preds = %entry
  %0 = landingpad { ptr, i32 }
          catch ptr null
  %1 = extractvalue { ptr, i32 } %0, 0
  call void @__clang_call_terminate(ptr %1) #16
  unreachable
}

; Function Attrs: mustprogress uwtable
define linkonce_odr hidden void @_ZN3refI6tacticEC2EPS0_(ptr noundef nonnull align 8 dereferenceable(8) %this, ptr noundef %ptr) unnamed_addr #4 comdat align 2 {
entry:
  %this.addr = alloca ptr, align 8
  %ptr.addr = alloca ptr, align 8
  store ptr %this, ptr %this.addr, align 8
  store ptr %ptr, ptr %ptr.addr, align 8
  %this1 = load ptr, ptr %this.addr, align 8
  %m_ptr = getelementptr inbounds %class.ref, ptr %this1, i32 0, i32 0
  %0 = load ptr, ptr %ptr.addr, align 8
  store ptr %0, ptr %m_ptr, align 8
  call void @_ZN3refI6tacticE7inc_refEv(ptr noundef nonnull align 8 dereferenceable(8) %this1)
  ret void
}

; Function Attrs: mustprogress nounwind uwtable
define linkonce_odr hidden void @_ZN6tacticC2Ev(ptr noundef nonnull align 8 dereferenceable(12) %this) unnamed_addr #5 comdat align 2 {
entry:
  %this.addr = alloca ptr, align 8
  store ptr %this, ptr %this.addr, align 8
  %this1 = load ptr, ptr %this.addr, align 8
  call void @_ZN15user_propagator4coreC2Ev(ptr noundef nonnull align 8 dereferenceable(8) %this1) #3
  store ptr getelementptr inbounds ({ [25 x ptr] }, ptr @_ZTV6tactic, i32 0, i32 0, i32 2), ptr %this1, align 8
  %m_ref_count = getelementptr inbounds %class.tactic, ptr %this1, i32 0, i32 1
  store i32 0, ptr %m_ref_count, align 8
  ret void
}

; Function Attrs: mustprogress uwtable
define linkonce_odr hidden void @_ZN15binary_tacticalC2EP6tacticS1_(ptr noundef nonnull align 8 dereferenceable(32) %this, ptr noundef %t1, ptr noundef %t2) unnamed_addr #4 comdat align 2 personality ptr @__gxx_personality_v0 {
entry:
  %this.addr = alloca ptr, align 8
  %t1.addr = alloca ptr, align 8
  %t2.addr = alloca ptr, align 8
  %exn.slot = alloca ptr, align 8
  %ehselector.slot = alloca i32, align 4
  store ptr %this, ptr %this.addr, align 8
  store ptr %t1, ptr %t1.addr, align 8
  store ptr %t2, ptr %t2.addr, align 8
  %this1 = load ptr, ptr %this.addr, align 8
  call void @_ZN6tacticC2Ev(ptr noundef nonnull align 8 dereferenceable(12) %this1)
  store ptr getelementptr inbounds ({ [25 x ptr] }, ptr @_ZTV15binary_tactical, i32 0, i32 0, i32 2), ptr %this1, align 8
  %m_t1 = getelementptr inbounds %class.binary_tactical, ptr %this1, i32 0, i32 1
  %0 = load ptr, ptr %t1.addr, align 8
  invoke void @_ZN3refI6tacticEC2EPS0_(ptr noundef nonnull align 8 dereferenceable(8) %m_t1, ptr noundef %0)
          to label %invoke.cont unwind label %lpad

invoke.cont:                                      ; preds = %entry
  %m_t2 = getelementptr inbounds %class.binary_tactical, ptr %this1, i32 0, i32 2
  %1 = load ptr, ptr %t2.addr, align 8
  invoke void @_ZN3refI6tacticEC2EPS0_(ptr noundef nonnull align 8 dereferenceable(8) %m_t2, ptr noundef %1)
          to label %invoke.cont3 unwind label %lpad2

invoke.cont3:                                     ; preds = %invoke.cont
  ret void

lpad:                                             ; preds = %entry
  %2 = landingpad { ptr, i32 }
          cleanup
  %3 = extractvalue { ptr, i32 } %2, 0
  store ptr %3, ptr %exn.slot, align 8
  %4 = extractvalue { ptr, i32 } %2, 1
  store i32 %4, ptr %ehselector.slot, align 4
  br label %ehcleanup

lpad2:                                            ; preds = %invoke.cont
  %5 = landingpad { ptr, i32 }
          cleanup
  %6 = extractvalue { ptr, i32 } %5, 0
  store ptr %6, ptr %exn.slot, align 8
  %7 = extractvalue { ptr, i32 } %5, 1
  store i32 %7, ptr %ehselector.slot, align 4
  call void @_ZN3refI6tacticED2Ev(ptr noundef nonnull align 8 dereferenceable(8) %m_t1) #3
  br label %ehcleanup

ehcleanup:                                        ; preds = %lpad2, %lpad
  call void @_ZN6tacticD2Ev(ptr noundef nonnull align 8 dereferenceable(12) %this1) #3
  br label %eh.resume

eh.resume:                                        ; preds = %ehcleanup
  %exn = load ptr, ptr %exn.slot, align 8
  %sel = load i32, ptr %ehselector.slot, align 4
  %lpad.val = insertvalue { ptr, i32 } poison, ptr %exn, 0
  %lpad.val4 = insertvalue { ptr, i32 } %lpad.val, i32 %sel, 1
  resume { ptr, i32 } %lpad.val4
}

; Function Attrs: mustprogress uwtable
define linkonce_odr hidden void @_ZN17and_then_tacticalC2EP6tacticS1_(ptr noundef nonnull align 8 dereferenceable(32) %this, ptr noundef %t1, ptr noundef %t2) unnamed_addr #4 comdat align 2 {
entry:
  %this.addr = alloca ptr, align 8
  %t1.addr = alloca ptr, align 8
  %t2.addr = alloca ptr, align 8
  store ptr %this, ptr %this.addr, align 8
  store ptr %t1, ptr %t1.addr, align 8
  store ptr %t2, ptr %t2.addr, align 8
  %this1 = load ptr, ptr %this.addr, align 8
  %0 = load ptr, ptr %t1.addr, align 8
  %1 = load ptr, ptr %t2.addr, align 8
  call void @_ZN15binary_tacticalC2EP6tacticS1_(ptr noundef nonnull align 8 dereferenceable(32) %this1, ptr noundef %0, ptr noundef %1)
  store ptr getelementptr inbounds ({ [25 x ptr] }, ptr @_ZTV17and_then_tactical, i32 0, i32 0, i32 2), ptr %this1, align 8
  ret void
}

; Function Attrs: mustprogress uwtable
define hidden noundef ptr @_Z8and_thenP6tacticS0_S0_S0_S0_S0_S0_S0_S0_(ptr noundef %t1, ptr noundef %t2, ptr noundef %t3, ptr noundef %t4, ptr noundef %t5, ptr noundef %t6, ptr noundef %t7, ptr noundef %t8, ptr noundef %t9) #4 {
entry:
  %t1.addr = alloca ptr, align 8
  %t2.addr = alloca ptr, align 8
  %t3.addr = alloca ptr, align 8
  %t4.addr = alloca ptr, align 8
  %t5.addr = alloca ptr, align 8
  %t6.addr = alloca ptr, align 8
  %t7.addr = alloca ptr, align 8
  %t8.addr = alloca ptr, align 8
  %t9.addr = alloca ptr, align 8
  store ptr %t1, ptr %t1.addr, align 8
  store ptr %t2, ptr %t2.addr, align 8
  store ptr %t3, ptr %t3.addr, align 8
  store ptr %t4, ptr %t4.addr, align 8
  store ptr %t5, ptr %t5.addr, align 8
  store ptr %t6, ptr %t6.addr, align 8
  store ptr %t7, ptr %t7.addr, align 8
  store ptr %t8, ptr %t8.addr, align 8
  store ptr %t9, ptr %t9.addr, align 8
  %0 = load ptr, ptr %t1.addr, align 8
  %1 = load ptr, ptr %t2.addr, align 8
  %2 = load ptr, ptr %t3.addr, align 8
  %3 = load ptr, ptr %t4.addr, align 8
  %4 = load ptr, ptr %t5.addr, align 8
  %5 = load ptr, ptr %t6.addr, align 8
  %6 = load ptr, ptr %t7.addr, align 8
  %7 = load ptr, ptr %t8.addr, align 8
  %8 = load ptr, ptr %t9.addr, align 8
  %call = call noundef ptr @_Z8and_thenP6tacticS0_S0_S0_S0_S0_S0_S0_(ptr noundef %1, ptr noundef %2, ptr noundef %3, ptr noundef %4, ptr noundef %5, ptr noundef %6, ptr noundef %7, ptr noundef %8)
  %call1 = call noundef ptr @_Z8and_thenP6tacticS0_(ptr noundef %0, ptr noundef %call)
  ret ptr %call1
}

; Function Attrs: mustprogress uwtable
define hidden noundef ptr @_Z8and_thenP6tacticS0_(ptr noundef %t1, ptr noundef %t2) #4 {
entry:
  %t1.addr = alloca ptr, align 8
  %t2.addr = alloca ptr, align 8
  store ptr %t1, ptr %t1.addr, align 8
  store ptr %t2, ptr %t2.addr, align 8
  %call = call noalias noundef ptr @_ZN6memory8allocateEm(i64 noundef 32)
  %0 = load ptr, ptr %t1.addr, align 8
  %1 = load ptr, ptr %t2.addr, align 8
  call void @_ZN17and_then_tacticalC2EP6tacticS1_(ptr noundef nonnull align 8 dereferenceable(32) %call, ptr noundef %0, ptr noundef %1)
  ret ptr %call
}

; Function Attrs: mustprogress uwtable
define hidden noundef ptr @_Z8and_thenP6tacticS0_S0_S0_S0_S0_S0_S0_S0_S0_(ptr noundef %t1, ptr noundef %t2, ptr noundef %t3, ptr noundef %t4, ptr noundef %t5, ptr noundef %t6, ptr noundef %t7, ptr noundef %t8, ptr noundef %t9, ptr noundef %t10) #4 {
entry:
  %t1.addr = alloca ptr, align 8
  %t2.addr = alloca ptr, align 8
  %t3.addr = alloca ptr, align 8
  %t4.addr = alloca ptr, align 8
  %t5.addr = alloca ptr, align 8
  %t6.addr = alloca ptr, align 8
  %t7.addr = alloca ptr, align 8
  %t8.addr = alloca ptr, align 8
  %t9.addr = alloca ptr, align 8
  %t10.addr = alloca ptr, align 8
  store ptr %t1, ptr %t1.addr, align 8
  store ptr %t2, ptr %t2.addr, align 8
  store ptr %t3, ptr %t3.addr, align 8
  store ptr %t4, ptr %t4.addr, align 8
  store ptr %t5, ptr %t5.addr, align 8
  store ptr %t6, ptr %t6.addr, align 8
  store ptr %t7, ptr %t7.addr, align 8
  store ptr %t8, ptr %t8.addr, align 8
  store ptr %t9, ptr %t9.addr, align 8
  store ptr %t10, ptr %t10.addr, align 8
  %0 = load ptr, ptr %t1.addr, align 8
  %1 = load ptr, ptr %t2.addr, align 8
  %2 = load ptr, ptr %t3.addr, align 8
  %3 = load ptr, ptr %t4.addr, align 8
  %4 = load ptr, ptr %t5.addr, align 8
  %5 = load ptr, ptr %t6.addr, align 8
  %6 = load ptr, ptr %t7.addr, align 8
  %7 = load ptr, ptr %t8.addr, align 8
  %8 = load ptr, ptr %t9.addr, align 8
  %9 = load ptr, ptr %t10.addr, align 8
  %call = call noundef ptr @_Z8and_thenP6tacticS0_S0_S0_S0_S0_S0_S0_S0_(ptr noundef %1, ptr noundef %2, ptr noundef %3, ptr noundef %4, ptr noundef %5, ptr noundef %6, ptr noundef %7, ptr noundef %8, ptr noundef %9)
  %call1 = call noundef ptr @_Z8and_thenP6tacticS0_(ptr noundef %0, ptr noundef %call)
  ret ptr %call1
}

; Function Attrs: mustprogress uwtable
define hidden noundef ptr @_Z8and_thenP6tacticS0_S0_S0_S0_S0_S0_S0_S0_S0_S0_(ptr noundef %t1, ptr noundef %t2, ptr noundef %t3, ptr noundef %t4, ptr noundef %t5, ptr noundef %t6, ptr noundef %t7, ptr noundef %t8, ptr noundef %t9, ptr noundef %t10, ptr noundef %t11) #4 {
entry:
  %t1.addr = alloca ptr, align 8
  %t2.addr = alloca ptr, align 8
  %t3.addr = alloca ptr, align 8
  %t4.addr = alloca ptr, align 8
  %t5.addr = alloca ptr, align 8
  %t6.addr = alloca ptr, align 8
  %t7.addr = alloca ptr, align 8
  %t8.addr = alloca ptr, align 8
  %t9.addr = alloca ptr, align 8
  %t10.addr = alloca ptr, align 8
  %t11.addr = alloca ptr, align 8
  store ptr %t1, ptr %t1.addr, align 8
  store ptr %t2, ptr %t2.addr, align 8
  store ptr %t3, ptr %t3.addr, align 8
  store ptr %t4, ptr %t4.addr, align 8
  store ptr %t5, ptr %t5.addr, align 8
  store ptr %t6, ptr %t6.addr, align 8
  store ptr %t7, ptr %t7.addr, align 8
  store ptr %t8, ptr %t8.addr, align 8
  store ptr %t9, ptr %t9.addr, align 8
  store ptr %t10, ptr %t10.addr, align 8
  store ptr %t11, ptr %t11.addr, align 8
  %0 = load ptr, ptr %t1.addr, align 8
  %1 = load ptr, ptr %t2.addr, align 8
  %2 = load ptr, ptr %t3.addr, align 8
  %3 = load ptr, ptr %t4.addr, align 8
  %4 = load ptr, ptr %t5.addr, align 8
  %5 = load ptr, ptr %t6.addr, align 8
  %6 = load ptr, ptr %t7.addr, align 8
  %7 = load ptr, ptr %t8.addr, align 8
  %8 = load ptr, ptr %t9.addr, align 8
  %9 = load ptr, ptr %t10.addr, align 8
  %10 = load ptr, ptr %t11.addr, align 8
  %call = call noundef ptr @_Z8and_thenP6tacticS0_S0_S0_S0_S0_S0_S0_S0_S0_(ptr noundef %1, ptr noundef %2, ptr noundef %3, ptr noundef %4, ptr noundef %5, ptr noundef %6, ptr noundef %7, ptr noundef %8, ptr noundef %9, ptr noundef %10)
  %call1 = call noundef ptr @_Z8and_thenP6tacticS0_(ptr noundef %0, ptr noundef %call)
  ret ptr %call1
}